target datalayout = "e-m:e-p270:32:32-p271:32:32-p272:64:64-i64:64-i128:128-f80:128-n8:16:32:64-S128"
target triple = "x86_64-pc-linux-gnu"

@hf_ecmp_program_control_target = internal global i32 0, align 4
@hf_ecmp_program_control_command = internal global i32 0, align 4
@hf_ecmp_program_control_sub_command = internal global i32 0, align 4
@hf_ecmp_program_control_status = internal global i32 0, align 4
@ett_ecmp_program_control_message = internal global i32 0, align 4
@.str.649 = private unnamed_addr constant [25 x i8] c"Program Control: (Query)\00", align 1
@.str.650 = private unnamed_addr constant [28 x i8] c"Program Control: (Response)\00", align 1

; Function Attrs: null_pointer_is_valid sspstrong uwtable
define internal void @program_control(i32 noundef %0, i1 noundef zeroext %1, ptr noundef %2, ptr noundef %3) #0 {
  %5 = alloca i32, align 4
  %6 = alloca i8, align 1
  %7 = alloca ptr, align 8
  %8 = alloca ptr, align 8
  %9 = alloca ptr, align 8
  store i32 %0, ptr %5, align 4
  %10 = zext i1 %1 to i8
  store i8 %10, ptr %6, align 1
  store ptr %2, ptr %7, align 8
  store ptr %3, ptr %8, align 8
  call void @llvm.lifetime.start.p0(i64 8, ptr %9) #3
  store ptr null, ptr %9, align 8
  %11 = load i8, ptr %6, align 1, !range !6, !noundef !7
  %12 = trunc i8 %11 to i1
  br i1 %12, label %13, label %38

13:                                               ; preds = %4
  %14 = load ptr, ptr %8, align 8
  %15 = load ptr, ptr %7, align 8
  %16 = load i32, ptr %5, align 4
  %17 = load i32, ptr @ett_ecmp_program_control_message, align 4
  %18 = call ptr @proto_tree_add_subtree(ptr noundef %14, ptr noundef %15, i32 noundef %16, i32 noundef 3, i32 noundef %17, ptr noundef null, ptr noundef @.str.649)
  store ptr %18, ptr %9, align 8
  %19 = load ptr, ptr %9, align 8
  %20 = load i32, ptr @hf_ecmp_program_control_target, align 4
  %21 = load ptr, ptr %7, align 8
  %22 = load i32, ptr %5, align 4
  %23 = call ptr @proto_tree_add_item(ptr noundef %19, i32 noundef %20, ptr noundef %21, i32 noundef %22, i32 noundef 1, i32 noundef 0)
  %24 = load i32, ptr %5, align 4
  %25 = add i32 %24, 1
  store i32 %25, ptr %5, align 4
  %26 = load ptr, ptr %9, align 8
  %27 = load i32, ptr @hf_ecmp_program_control_command, align 4
  %28 = load ptr, ptr %7, align 8
  %29 = load i32, ptr %5, align 4
  %30 = call ptr @proto_tree_add_item(ptr noundef %26, i32 noundef %27, ptr noundef %28, i32 noundef %29, i32 noundef 1, i32 noundef 0)
  %31 = load i32, ptr %5, align 4
  %32 = add i32 %31, 1
  store i32 %32, ptr %5, align 4
  %33 = load ptr, ptr %9, align 8
  %34 = load i32, ptr @hf_ecmp_program_control_sub_command, align 4
  %35 = load ptr, ptr %7, align 8
  %36 = load i32, ptr %5, align 4
  %37 = call ptr @proto_tree_add_item(ptr noundef %33, i32 noundef %34, ptr noundef %35, i32 noundef %36, i32 noundef 1, i32 noundef 0)
  br label %49

38:                                               ; preds = %4
  %39 = load ptr, ptr %8, align 8
  %40 = load ptr, ptr %7, align 8
  %41 = load i32, ptr %5, align 4
  %42 = load i32, ptr @ett_ecmp_program_control_message, align 4
  %43 = call ptr @proto_tree_add_subtree(ptr noundef %39, ptr noundef %40, i32 noundef %41, i32 noundef 1, i32 noundef %42, ptr noundef null, ptr noundef @.str.650)
  store ptr %43, ptr %9, align 8
  %44 = load ptr, ptr %9, align 8
  %45 = load i32, ptr @hf_ecmp_program_control_status, align 4
  %46 = load ptr, ptr %7, align 8
  %47 = load i32, ptr %5, align 4
  %48 = call ptr @proto_tree_add_item(ptr noundef %44, i32 noundef %45, ptr noundef %46, i32 noundef %47, i32 noundef 1, i32 noundef 0)
  br label %49

49:                                               ; preds = %38, %13
  call void @llvm.lifetime.end.p0(i64 8, ptr %9) #3
  ret void
}