; Function Attrs: null_pointer_is_valid sspstrong uwtable
define internal fastcc void @program_control(i32 noundef %0, i1 noundef zeroext %1, ptr noundef %2, ptr noundef %3) unnamed_addr #0 {
  %5 = load i32, ptr @ett_ecmp_program_control_message, align 4
  br i1 %1, label %6, label %16

6:                                                ; preds = %4
  %7 = tail call ptr @proto_tree_add_subtree(ptr noundef %3, ptr noundef %2, i32 noundef %0, i32 noundef 3, i32 noundef %5, ptr noundef null, ptr noundef nonnull @.str.649)
  %8 = load i32, ptr @hf_ecmp_program_control_target, align 4
  %9 = tail call ptr @proto_tree_add_item(ptr noundef %7, i32 noundef %8, ptr noundef %2, i32 noundef %0, i32 noundef 1, i32 noundef 0)
  %10 = add i32 %0, 1
  %11 = load i32, ptr @hf_ecmp_program_control_command, align 4
  %12 = tail call ptr @proto_tree_add_item(ptr noundef %7, i32 noundef %11, ptr noundef %2, i32 noundef %10, i32 noundef 1, i32 noundef 0)
  %13 = add i32 %0, 2
  %14 = load i32, ptr @hf_ecmp_program_control_sub_command, align 4
  %15 = tail call ptr @proto_tree_add_item(ptr noundef %7, i32 noundef %14, ptr noundef %2, i32 noundef %13, i32 noundef 1, i32 noundef 0)
  br label %20

16:                                               ; preds = %4
  %17 = tail call ptr @proto_tree_add_subtree(ptr noundef %3, ptr noundef %2, i32 noundef %0, i32 noundef 1, i32 noundef %5, ptr noundef null, ptr noundef nonnull @.str.650)
  %18 = load i32, ptr @hf_ecmp_program_control_status, align 4
  %19 = tail call ptr @proto_tree_add_item(ptr noundef %17, i32 noundef %18, ptr noundef %2, i32 noundef %0, i32 noundef 1, i32 noundef 0)
  br label %20

20:                                               ; preds = %16, %6
  ret void
}